target datalayout = "e-m:e-p270:32:32-p271:32:32-p272:64:64-i64:64-i128:128-f80:128-n8:16:32:64-S128"
target triple = "x86_64-pc-linux-gnu"

%struct.ieee80211_radiotap_header = type { i8, i8, i16, i32 }
%struct.ieee80211_radiotap_iterator = type { ptr, ptr, ptr, ptr, ptr, ptr, ptr, ptr, i32, i32, i32, i32, i32, i32, i32, i32, i32 }

@radiotap_ns = internal constant { ptr, i32, i32, i8, [7 x i8] } { ptr @rtap_namespace_sizes, i32 29, i32 0, i8 0, [7 x i8] zeroinitializer }, align 8

; Function Attrs: inlinehint nounwind null_pointer_is_valid sspstrong uwtable
define internal i32 @pletoh32(ptr noundef %0) #1 {
  %2 = alloca ptr, align 8
  store ptr %0, ptr %2, align 8
  %3 = load ptr, ptr %2, align 8
  %4 = getelementptr i8, ptr %3, i64 3
  %5 = load i8, ptr %4, align 1
  %6 = zext i8 %5 to i32
  %7 = shl i32 %6, 24
  %8 = load ptr, ptr %2, align 8
  %9 = getelementptr i8, ptr %8, i64 2
  %10 = load i8, ptr %9, align 1
  %11 = zext i8 %10 to i32
  %12 = shl i32 %11, 16
  %13 = or i32 %7, %12
  %14 = load ptr, ptr %2, align 8
  %15 = getelementptr i8, ptr %14, i64 1
  %16 = load i8, ptr %15, align 1
  %17 = zext i8 %16 to i32
  %18 = shl i32 %17, 8
  %19 = or i32 %13, %18
  %20 = load ptr, ptr %2, align 8
  %21 = getelementptr i8, ptr %20, i64 0
  %22 = load i8, ptr %21, align 1
  %23 = zext i8 %22 to i32
  %24 = shl i32 %23, 0
  %25 = or i32 %19, %24
  ret i32 %25
}

; Function Attrs: inlinehint nounwind null_pointer_is_valid sspstrong uwtable
define internal zeroext i16 @pletoh16(ptr noundef %0) #1 {
  %2 = alloca ptr, align 8
  store ptr %0, ptr %2, align 8
  %3 = load ptr, ptr %2, align 8
  %4 = getelementptr i8, ptr %3, i64 1
  %5 = load i8, ptr %4, align 1
  %6 = zext i8 %5 to i16
  %7 = zext i16 %6 to i32
  %8 = shl i32 %7, 8
  %9 = load ptr, ptr %2, align 8
  %10 = getelementptr i8, ptr %9, i64 0
  %11 = load i8, ptr %10, align 1
  %12 = zext i8 %11 to i16
  %13 = zext i16 %12 to i32
  %14 = shl i32 %13, 0
  %15 = or i32 %8, %14
  %16 = trunc i32 %15 to i16
  ret i16 %16
}

; Function Attrs: null_pointer_is_valid sspstrong uwtable
define hidden i32 @ieee80211_radiotap_iterator_init(ptr noundef %0, ptr noundef %1, i32 noundef %2, ptr noundef %3) #0 {
  %5 = alloca i32, align 4
  %6 = alloca ptr, align 8
  %7 = alloca ptr, align 8
  %8 = alloca i32, align 4
  %9 = alloca ptr, align 8
  store ptr %0, ptr %6, align 8
  store ptr %1, ptr %7, align 8
  store i32 %2, ptr %8, align 4
  store ptr %3, ptr %9, align 8
  %10 = load i32, ptr %8, align 4
  %11 = icmp slt i32 %10, 8
  br i1 %11, label %12, label %13

12:                                               ; preds = %4
  store i32 -22, ptr %5, align 4
  br label %151

13:                                               ; preds = %4
  %14 = load ptr, ptr %7, align 8
  %15 = getelementptr inbounds nuw %struct.ieee80211_radiotap_header, ptr %14, i32 0, i32 0
  %16 = load i8, ptr %15, align 4
  %17 = icmp ne i8 %16, 0
  br i1 %17, label %18, label %19

18:                                               ; preds = %13
  store i32 -22, ptr %5, align 4
  br label %151

19:                                               ; preds = %13
  %20 = load i32, ptr %8, align 4
  %21 = load ptr, ptr %7, align 8
  %22 = getelementptr inbounds nuw %struct.ieee80211_radiotap_header, ptr %21, i32 0, i32 2
  %23 = call zeroext i16 @pletoh16(ptr noundef %22)
  %24 = zext i16 %23 to i32
  %25 = icmp slt i32 %20, %24
  br i1 %25, label %26, label %27

26:                                               ; preds = %19
  store i32 -22, ptr %5, align 4
  br label %151

27:                                               ; preds = %19
  %28 = load ptr, ptr %7, align 8
  %29 = load ptr, ptr %6, align 8
  %30 = getelementptr inbounds nuw %struct.ieee80211_radiotap_iterator, ptr %29, i32 0, i32 0
  store ptr %28, ptr %30, align 8
  %31 = load ptr, ptr %7, align 8
  %32 = getelementptr inbounds nuw %struct.ieee80211_radiotap_header, ptr %31, i32 0, i32 2
  %33 = call zeroext i16 @pletoh16(ptr noundef %32)
  %34 = zext i16 %33 to i32
  %35 = load ptr, ptr %6, align 8
  %36 = getelementptr inbounds nuw %struct.ieee80211_radiotap_iterator, ptr %35, i32 0, i32 13
  store i32 %34, ptr %36, align 4
  %37 = load ptr, ptr %6, align 8
  %38 = getelementptr inbounds nuw %struct.ieee80211_radiotap_iterator, ptr %37, i32 0, i32 14
  store i32 0, ptr %38, align 8
  %39 = load ptr, ptr %7, align 8
  %40 = getelementptr inbounds nuw %struct.ieee80211_radiotap_header, ptr %39, i32 0, i32 3
  %41 = call i32 @pletoh32(ptr noundef %40)
  %42 = load ptr, ptr %6, align 8
  %43 = getelementptr inbounds nuw %struct.ieee80211_radiotap_iterator, ptr %42, i32 0, i32 15
  store i32 %41, ptr %43, align 4
  %44 = load ptr, ptr %7, align 8
  %45 = getelementptr i8, ptr %44, i64 8
  %46 = load ptr, ptr %6, align 8
  %47 = getelementptr inbounds nuw %struct.ieee80211_radiotap_iterator, ptr %46, i32 0, i32 3
  store ptr %45, ptr %47, align 8
  %48 = load ptr, ptr %6, align 8
  %49 = getelementptr inbounds nuw %struct.ieee80211_radiotap_iterator, ptr %48, i32 0, i32 16
  store i32 0, ptr %49, align 8
  %50 = load ptr, ptr %6, align 8
  %51 = getelementptr inbounds nuw %struct.ieee80211_radiotap_iterator, ptr %50, i32 0, i32 4
  store ptr null, ptr %51, align 8
  %52 = load ptr, ptr %7, align 8
  %53 = getelementptr inbounds nuw %struct.ieee80211_radiotap_header, ptr %52, i32 0, i32 3
  %54 = load ptr, ptr %6, align 8
  %55 = getelementptr inbounds nuw %struct.ieee80211_radiotap_iterator, ptr %54, i32 0, i32 5
  store ptr %53, ptr %55, align 8
  %56 = load ptr, ptr %6, align 8
  %57 = getelementptr inbounds nuw %struct.ieee80211_radiotap_iterator, ptr %56, i32 0, i32 5
  %58 = load ptr, ptr %57, align 8
  %59 = getelementptr i32, ptr %58, i32 1
  store ptr %59, ptr %57, align 8
  %60 = load ptr, ptr %9, align 8
  %61 = load ptr, ptr %6, align 8
  %62 = getelementptr inbounds nuw %struct.ieee80211_radiotap_iterator, ptr %61, i32 0, i32 1
  store ptr %60, ptr %62, align 8
  %63 = load ptr, ptr %6, align 8
  %64 = getelementptr inbounds nuw %struct.ieee80211_radiotap_iterator, ptr %63, i32 0, i32 2
  store ptr @radiotap_ns, ptr %64, align 8
  %65 = load ptr, ptr %6, align 8
  %66 = getelementptr inbounds nuw %struct.ieee80211_radiotap_iterator, ptr %65, i32 0, i32 11
  store i32 1, ptr %66, align 4
  %67 = load ptr, ptr %6, align 8
  %68 = getelementptr inbounds nuw %struct.ieee80211_radiotap_iterator, ptr %67, i32 0, i32 12
  store i32 0, ptr %68, align 8
  %69 = load ptr, ptr %6, align 8
  %70 = getelementptr inbounds nuw %struct.ieee80211_radiotap_iterator, ptr %69, i32 0, i32 8
  store i32 0, ptr %70, align 8
  %71 = load ptr, ptr %6, align 8
  %72 = getelementptr inbounds nuw %struct.ieee80211_radiotap_iterator, ptr %71, i32 0, i32 7
  store ptr null, ptr %72, align 8
  %73 = load ptr, ptr %6, align 8
  %74 = getelementptr inbounds nuw %struct.ieee80211_radiotap_iterator, ptr %73, i32 0, i32 15
  %75 = load i32, ptr %74, align 4
  %76 = and i32 %75, -2147483648
  %77 = icmp ne i32 %76, 0
  br i1 %77, label %78, label %145

78:                                               ; preds = %27
  %79 = load ptr, ptr %6, align 8
  %80 = getelementptr inbounds nuw %struct.ieee80211_radiotap_iterator, ptr %79, i32 0, i32 3
  %81 = load ptr, ptr %80, align 8
  %82 = getelementptr i8, ptr %81, i64 4
  %83 = load ptr, ptr %6, align 8
  %84 = getelementptr inbounds nuw %struct.ieee80211_radiotap_iterator, ptr %83, i32 0, i32 0
  %85 = load ptr, ptr %84, align 8
  %86 = ptrtoint ptr %82 to i64
  %87 = ptrtoint ptr %85 to i64
  %88 = sub i64 %86, %87
  %89 = load ptr, ptr %6, align 8
  %90 = getelementptr inbounds nuw %struct.ieee80211_radiotap_iterator, ptr %89, i32 0, i32 13
  %91 = load i32, ptr %90, align 4
  %92 = sext i32 %91 to i64
  %93 = icmp sle i64 %88, %92
  br i1 %93, label %95, label %94

94:                                               ; preds = %78
  store i32 -22, ptr %5, align 4
  br label %151

95:                                               ; preds = %78
  br label %96

96:                                               ; preds = %139, %95
  %97 = load ptr, ptr %6, align 8
  %98 = getelementptr inbounds nuw %struct.ieee80211_radiotap_iterator, ptr %97, i32 0, i32 3
  %99 = load ptr, ptr %98, align 8
  %100 = call i32 @pletoh32(ptr noundef %99)
  %101 = and i32 %100, -2147483648
  %102 = icmp ne i32 %101, 0
  br i1 %102, label %103, label %140

103:                                              ; preds = %96
  %104 = load ptr, ptr %6, align 8
  %105 = getelementptr inbounds nuw %struct.ieee80211_radiotap_iterator, ptr %104, i32 0, i32 3
  %106 = load ptr, ptr %105, align 8
  %107 = getelementptr i8, ptr %106, i64 4
  store ptr %107, ptr %105, align 8
  %108 = load ptr, ptr %6, align 8
  %109 = getelementptr inbounds nuw %struct.ieee80211_radiotap_iterator, ptr %108, i32 0, i32 3
  %110 = load ptr, ptr %109, align 8
  %111 = getelementptr i8, ptr %110, i64 4
  %112 = load ptr, ptr %6, align 8
  %113 = getelementptr inbounds nuw %struct.ieee80211_radiotap_iterator, ptr %112, i32 0, i32 0
  %114 = load ptr, ptr %113, align 8
  %115 = ptrtoint ptr %111 to i64
  %116 = ptrtoint ptr %114 to i64
  %117 = sub i64 %115, %116
  %118 = load ptr, ptr %6, align 8
  %119 = getelementptr inbounds nuw %struct.ieee80211_radiotap_iterator, ptr %118, i32 0, i32 13
  %120 = load i32, ptr %119, align 4
  %121 = sext i32 %120 to i64
  %122 = icmp sle i64 %117, %121
  br i1 %122, label %124, label %123

123:                                              ; preds = %103
  store i32 -22, ptr %5, align 4
  br label %151

124:                                              ; preds = %103
  %125 = load ptr, ptr %6, align 8
  %126 = getelementptr inbounds nuw %struct.ieee80211_radiotap_iterator, ptr %125, i32 0, i32 3
  %127 = load ptr, ptr %126, align 8
  %128 = call i32 @pletoh32(ptr noundef %127)
  %129 = and i32 %128, 268435456
  %130 = icmp ne i32 %129, 0
  br i1 %130, label %131, label %139

131:                                              ; preds = %124
  %132 = load ptr, ptr %6, align 8
  %133 = getelementptr inbounds nuw %struct.ieee80211_radiotap_iterator, ptr %132, i32 0, i32 3
  %134 = load ptr, ptr %133, align 8
  %135 = call i32 @pletoh32(ptr noundef %134)
  %136 = and i32 %135, -2147483648
  %137 = icmp ne i32 %136, 0
  br i1 %137, label %138, label %139

138:                                              ; preds = %131
  store i32 -22, ptr %5, align 4
  br label %151

139:                                              ; preds = %131, %124
  br label %96, !llvm.loop !6

140:                                              ; preds = %96
  %141 = load ptr, ptr %6, align 8
  %142 = getelementptr inbounds nuw %struct.ieee80211_radiotap_iterator, ptr %141, i32 0, i32 3
  %143 = load ptr, ptr %142, align 8
  %144 = getelementptr i8, ptr %143, i64 4
  store ptr %144, ptr %142, align 8
  br label %145

145:                                              ; preds = %140, %27
  %146 = load ptr, ptr %6, align 8
  %147 = getelementptr inbounds nuw %struct.ieee80211_radiotap_iterator, ptr %146, i32 0, i32 3
  %148 = load ptr, ptr %147, align 8
  %149 = load ptr, ptr %6, align 8
  %150 = getelementptr inbounds nuw %struct.ieee80211_radiotap_iterator, ptr %149, i32 0, i32 6
  store ptr %148, ptr %150, align 8
  store i32 0, ptr %5, align 4
  br label %151

151:                                              ; preds = %145, %138, %123, %94, %26, %18, %12
  %152 = load i32, ptr %5, align 4
  ret i32 %152
}