; Function Attrs: nofree norecurse nosync nounwind null_pointer_is_valid sspstrong memory(argmem: readwrite) uwtable
define hidden range(i32 -22, 1) i32 @ieee80211_radiotap_iterator_init(ptr noundef writeonly captures(none) %0, ptr noundef %1, i32 noundef %2, ptr noundef %3) local_unnamed_addr #0 {
  %5 = icmp slt i32 %2, 8
  br i1 %5, label %.loopexit, label %6

6:                                                ; preds = %4
  %7 = load i8, ptr %1, align 4
  %.not = icmp eq i8 %7, 0
  br i1 %.not, label %8, label %.loopexit

8:                                                ; preds = %6
  %9 = getelementptr inbounds nuw i8, ptr %1, i64 2
  %.val = load i16, ptr %9, align 1
  %10 = zext i16 %.val to i32
  %11 = icmp samesign ult i32 %2, %10
  br i1 %11, label %.loopexit, label %12

12:                                               ; preds = %8
  %13 = getelementptr i8, ptr %1, i64 3
  store ptr %1, ptr %0, align 8
  %.val47 = load i8, ptr %9, align 1
  %.val48 = load i8, ptr %13, align 1
  %14 = zext i8 %.val48 to i32
  %15 = shl nuw nsw i32 %14, 8
  %16 = zext i8 %.val47 to i32
  %17 = or disjoint i32 %15, %16
  %18 = getelementptr inbounds nuw i8, ptr %0, i64 84
  store i32 %17, ptr %18, align 4
  %19 = getelementptr inbounds nuw i8, ptr %0, i64 88
  store i32 0, ptr %19, align 8
  %20 = getelementptr inbounds nuw i8, ptr %1, i64 4
  %21 = load i32, ptr %20, align 1
  %22 = getelementptr inbounds nuw i8, ptr %0, i64 92
  store i32 %21, ptr %22, align 4
  %23 = getelementptr i8, ptr %1, i64 8
  %24 = getelementptr inbounds nuw i8, ptr %0, i64 24
  store ptr %23, ptr %24, align 8
  %25 = getelementptr inbounds nuw i8, ptr %0, i64 96
  store i32 0, ptr %25, align 8
  %26 = getelementptr inbounds nuw i8, ptr %0, i64 32
  store ptr null, ptr %26, align 8
  %27 = getelementptr inbounds nuw i8, ptr %0, i64 40
  store ptr %23, ptr %27, align 8
  %28 = getelementptr inbounds nuw i8, ptr %0, i64 8
  store ptr %3, ptr %28, align 8
  %29 = getelementptr inbounds nuw i8, ptr %0, i64 16
  store ptr @radiotap_ns, ptr %29, align 8
  %30 = getelementptr inbounds nuw i8, ptr %0, i64 76
  store i32 1, ptr %30, align 4
  %31 = getelementptr inbounds nuw i8, ptr %0, i64 80
  store i32 0, ptr %31, align 8
  %32 = getelementptr inbounds nuw i8, ptr %0, i64 64
  store i32 0, ptr %32, align 8
  %33 = getelementptr inbounds nuw i8, ptr %0, i64 56
  store ptr null, ptr %33, align 8
  %.not40 = icmp sgt i32 %21, -1
  br i1 %.not40, label %.loopexit53, label %34

34:                                               ; preds = %12
  %35 = ptrtoint ptr %1 to i64
  %36 = zext nneg i32 %17 to i64
  %.not41 = icmp samesign ult i32 %17, 12
  br i1 %.not41, label %.loopexit, label %.preheader

.preheader:                                       ; preds = %34
  %.pre = load i32, ptr %23, align 1
  br label %37

37:                                               ; preds = %.preheader, %45
  %38 = phi i32 [ %.pre, %.preheader ], [ %46, %45 ]
  %39 = phi ptr [ %23, %.preheader ], [ %40, %45 ]
  %.not42 = icmp sgt i32 %38, -1
  %40 = getelementptr i8, ptr %39, i64 4
  store ptr %40, ptr %24, align 8
  br i1 %.not42, label %.loopexit53, label %41

41:                                               ; preds = %37
  %42 = getelementptr i8, ptr %39, i64 8
  %43 = ptrtoint ptr %42 to i64
  %44 = sub i64 %43, %35
  %.not43 = icmp sgt i64 %44, %36
  br i1 %.not43, label %.loopexit, label %45

45:                                               ; preds = %41
  %46 = load i32, ptr %40, align 1
  %47 = and i32 %46, -1879048192
  %or.cond.not = icmp eq i32 %47, -1879048192
  br i1 %or.cond.not, label %.loopexit, label %37, !llvm.loop !6

.loopexit53:                                      ; preds = %37, %12
  %48 = phi ptr [ %23, %12 ], [ %40, %37 ]
  %49 = getelementptr inbounds nuw i8, ptr %0, i64 48
  store ptr %48, ptr %49, align 8
  br label %.loopexit

.loopexit:                                        ; preds = %45, %41, %34, %8, %6, %4, %.loopexit53
  %.0 = phi i32 [ 0, %.loopexit53 ], [ -22, %4 ], [ -22, %6 ], [ -22, %8 ], [ -22, %34 ], [ -22, %41 ], [ -22, %45 ]
  ret i32 %.0
}